; Function Attrs: nounwind sspstrong uwtable
define internal range(i64 0, 21) i64 @rb_file_suid_p(i64 %0, i64 noundef %1) #0 {
  %3 = alloca %struct.stat, align 8
  call void @llvm.lifetime.start.p0(i64 144, ptr nonnull %3) #22
  %4 = call fastcc i32 @rb_stat(i64 noundef %1, ptr noundef %3)
  %5 = icmp slt i32 %4, 0
  %6 = getelementptr inbounds nuw i8, ptr %3, i64 24
  %7 = load i32, ptr %6, align 8
  %8 = and i32 %7, 2048
  %.not.i = icmp eq i32 %8, 0
  %9 = select i1 %5, i1 true, i1 %.not.i
  %.0.i = select i1 %9, i64 0, i64 20
  call void @llvm.lifetime.end.p0(i64 144, ptr nonnull %3) #22
  ret i64 %.0.i
}